target datalayout = "e-m:e-p270:32:32-p271:32:32-p272:64:64-i64:64-i128:128-f80:128-n8:16:32:64-S128"
target triple = "x86_64-pc-linux-gnu"

%union.pthread_mutex_t = type { %struct.__pthread_mutex_s }
%struct.__pthread_mutex_s = type { i32, i32, i32, i32, i32, i16, i16, %struct.__pthread_internal_list }
%struct.__pthread_internal_list = type { ptr, ptr }

@cache_mutex = internal global %union.pthread_mutex_t zeroinitializer, align 8
@.str = private unnamed_addr constant [29 x i8] c"%s: pthread_mutex_lock(): %m\00", align 1
@cached_bitstr_len = internal global i64 0, align 8
@.str.2 = private unnamed_addr constant [31 x i8] c"%s: pthread_mutex_unlock(): %m\00", align 1
@cached_bitstr = internal global ptr null, align 8
@__func__._cache_push = private unnamed_addr constant [12 x i8] c"_cache_push\00", align 1

; Function Attrs: nounwind uwtable
define internal void @_cache_push(ptr noundef %0) #0 {
  %2 = alloca ptr, align 8
  %3 = alloca i32, align 4
  %4 = alloca i32, align 4
  store ptr %0, ptr %2, align 8
  br label %5

5:                                                ; preds = %1
  call void @llvm.lifetime.start.p0(i64 4, ptr %3) #12
  %6 = call i32 @pthread_mutex_lock(ptr noundef @cache_mutex) #12
  store i32 %6, ptr %3, align 4
  %7 = load i32, ptr %3, align 4
  %8 = icmp ne i32 %7, 0
  br i1 %8, label %9, label %12

9:                                                ; preds = %5
  %10 = load i32, ptr %3, align 4
  %11 = call ptr @__errno_location() #14
  store i32 %10, ptr %11, align 4
  call void (ptr, ...) @fatal_abort(ptr noundef @.str, ptr noundef @__func__._cache_push) #15
  unreachable

12:                                               ; preds = %5
  call void @llvm.lifetime.end.p0(i64 4, ptr %3) #12
  br label %13

13:                                               ; preds = %12
  %14 = load ptr, ptr @cached_bitstr, align 8
  %15 = load ptr, ptr %2, align 8
  store ptr %14, ptr %15, align 8
  %16 = load ptr, ptr %2, align 8
  store ptr %16, ptr @cached_bitstr, align 8
  br label %17

17:                                               ; preds = %13
  call void @llvm.lifetime.start.p0(i64 4, ptr %4) #12
  %18 = call i32 @pthread_mutex_unlock(ptr noundef @cache_mutex) #12
  store i32 %18, ptr %4, align 4
  %19 = load i32, ptr %4, align 4
  %20 = icmp ne i32 %19, 0
  br i1 %20, label %21, label %24

21:                                               ; preds = %17
  %22 = load i32, ptr %4, align 4
  %23 = call ptr @__errno_location() #14
  store i32 %22, ptr %23, align 4
  call void (ptr, ...) @fatal_abort(ptr noundef @.str.2, ptr noundef @__func__._cache_push) #15
  unreachable

24:                                               ; preds = %17
  call void @llvm.lifetime.end.p0(i64 4, ptr %4) #12
  br label %25

25:                                               ; preds = %24
  ret void
}

; Function Attrs: nounwind uwtable
define dso_local void @slurm_bit_free(ptr noundef %0) #0 {
  %2 = alloca ptr, align 8
  store ptr %0, ptr %2, align 8
  %3 = load ptr, ptr %2, align 8
  %4 = load ptr, ptr %3, align 8
  %5 = getelementptr inbounds i64, ptr %4, i64 0
  store i64 0, ptr %5, align 8
  %6 = load ptr, ptr %2, align 8
  %7 = load ptr, ptr %6, align 8
  %8 = getelementptr inbounds i64, ptr %7, i64 1
  %9 = load i64, ptr %8, align 8
  %10 = load i64, ptr @cached_bitstr_len, align 8
  %11 = icmp eq i64 %9, %10
  br i1 %11, label %12, label %16

12:                                               ; preds = %1
  %13 = load ptr, ptr %2, align 8
  %14 = load ptr, ptr %13, align 8
  call void @_cache_push(ptr noundef %14)
  %15 = load ptr, ptr %2, align 8
  store ptr null, ptr %15, align 8
  br label %18

16:                                               ; preds = %1
  %17 = load ptr, ptr %2, align 8
  call void @slurm_xfree(ptr noundef %17)
  br label %18

18:                                               ; preds = %16, %12
  ret void
}