; Function Attrs: nounwind uwtable
define dso_local void @slurm_bit_free(ptr noundef %0) local_unnamed_addr #0 {
  %2 = load ptr, ptr %0, align 8
  store i64 0, ptr %2, align 8
  %3 = load ptr, ptr %0, align 8
  %4 = getelementptr inbounds nuw i8, ptr %3, i64 8
  %5 = load i64, ptr %4, align 8
  %6 = load i64, ptr @cached_bitstr_len, align 8
  %7 = icmp eq i64 %5, %6
  br i1 %7, label %8, label %17

8:                                                ; preds = %1
  %9 = tail call i32 @pthread_mutex_lock(ptr noundef nonnull @cache_mutex) #17
  %.not.i = icmp eq i32 %9, 0
  br i1 %.not.i, label %12, label %10

10:                                               ; preds = %8
  %11 = tail call ptr @__errno_location() #18
  store i32 %9, ptr %11, align 4
  tail call void (ptr, ...) @fatal_abort(ptr noundef nonnull @.str, ptr noundef nonnull @__func__._cache_push) #19
  unreachable

12:                                               ; preds = %8
  %13 = load ptr, ptr @cached_bitstr, align 8
  store ptr %13, ptr %3, align 8
  store ptr %3, ptr @cached_bitstr, align 8
  %14 = tail call i32 @pthread_mutex_unlock(ptr noundef nonnull @cache_mutex) #17
  %.not6.i = icmp eq i32 %14, 0
  br i1 %.not6.i, label %_cache_push.exit, label %15

15:                                               ; preds = %12
  %16 = tail call ptr @__errno_location() #18
  store i32 %14, ptr %16, align 4
  tail call void (ptr, ...) @fatal_abort(ptr noundef nonnull @.str.2, ptr noundef nonnull @__func__._cache_push) #19
  unreachable

_cache_push.exit:                                 ; preds = %12
  store ptr null, ptr %0, align 8
  br label %18

17:                                               ; preds = %1
  tail call void @slurm_xfree(ptr noundef nonnull %0) #17
  br label %18

18:                                               ; preds = %17, %_cache_push.exit
  ret void
}